; Function Attrs: nounwind uwtable
define nonnull ptr @l_Lean_Server_RequestM_findCmdParsedSnaps_overlapsRequestedRange___boxed(ptr noundef %0, ptr noundef %1, ptr noundef %2) local_unnamed_addr #1 {
  %4 = tail call zeroext i8 @l_Lean_Server_RequestM_findCmdParsedSnaps_overlapsRequestedRange(ptr noundef %0, ptr noundef %1, ptr noundef %2)
  %5 = ptrtoint ptr %2 to i64
  %6 = and i64 %5, 1
  %.not = icmp eq i64 %6, 0
  br i1 %.not, label %7, label %lean_dec.exit8

7:                                                ; preds = %3
  %8 = load i32, ptr %2, align 4, !tbaa !4
  %9 = icmp sgt i32 %8, 1
  br i1 %9, label %10, label %12, !prof !11

10:                                               ; preds = %7
  %11 = add nsw i32 %8, -1
  store i32 %11, ptr %2, align 4, !tbaa !4
  br label %lean_dec.exit8

12:                                               ; preds = %7
  %.not.i = icmp eq i32 %8, 0
  br i1 %.not.i, label %lean_dec.exit8, label %13

13:                                               ; preds = %12
  tail call void @lean_dec_ref_cold(ptr noundef nonnull %2) #6
  br label %lean_dec.exit8

lean_dec.exit8:                                   ; preds = %13, %12, %10, %3
  %14 = ptrtoint ptr %1 to i64
  %15 = and i64 %14, 1
  %.not13 = icmp eq i64 %15, 0
  br i1 %.not13, label %16, label %lean_dec.exit7

16:                                               ; preds = %lean_dec.exit8
  %17 = load i32, ptr %1, align 4, !tbaa !4
  %18 = icmp sgt i32 %17, 1
  br i1 %18, label %19, label %21, !prof !11

19:                                               ; preds = %16
  %20 = add nsw i32 %17, -1
  store i32 %20, ptr %1, align 4, !tbaa !4
  br label %lean_dec.exit7

21:                                               ; preds = %16
  %.not.i9 = icmp eq i32 %17, 0
  br i1 %.not.i9, label %lean_dec.exit7, label %22

22:                                               ; preds = %21
  tail call void @lean_dec_ref_cold(ptr noundef nonnull %1) #6
  br label %lean_dec.exit7

lean_dec.exit7:                                   ; preds = %22, %21, %19, %lean_dec.exit8
  %23 = ptrtoint ptr %0 to i64
  %24 = and i64 %23, 1
  %.not14 = icmp eq i64 %24, 0
  br i1 %.not14, label %25, label %lean_dec.exit

25:                                               ; preds = %lean_dec.exit7
  %26 = load i32, ptr %0, align 4, !tbaa !4
  %27 = icmp sgt i32 %26, 1
  br i1 %27, label %28, label %30, !prof !11

28:                                               ; preds = %25
  %29 = add nsw i32 %26, -1
  store i32 %29, ptr %0, align 4, !tbaa !4
  br label %lean_dec.exit

30:                                               ; preds = %25
  %.not.i11 = icmp eq i32 %26, 0
  br i1 %.not.i11, label %lean_dec.exit, label %31

31:                                               ; preds = %30
  tail call void @lean_dec_ref_cold(ptr noundef nonnull %0) #6
  br label %lean_dec.exit

lean_dec.exit:                                    ; preds = %31, %30, %28, %lean_dec.exit7
  %32 = zext i8 %4 to i64
  %33 = shl nuw nsw i64 %32, 1
  %34 = or disjoint i64 %33, 1
  %35 = inttoptr i64 %34 to ptr
  ret ptr %35
}